target datalayout = "e-m:e-p270:32:32-p271:32:32-p272:64:64-i64:64-i128:128-f80:128-n8:16:32:64-S128"
target triple = "x86_64-pc-linux-gnu"

%class.Metadata = type { ptr }
%class.AccessFlags = type { i32 }
%class.methodHandle = type { ptr, ptr }
%class.Method = type { %class.Metadata, ptr, ptr, ptr, ptr, %class.AccessFlags, i32, %class.MethodFlags, i16, %class.JfrTraceFlag, ptr, ptr, ptr, ptr }
%class.MethodFlags = type { i32 }
%class.JfrTraceFlag = type { i16 }
%class.MethodData = type { %class.Metadata, ptr, i32, i32, %class.Mutex, %"class.MethodData::CompilerCounters", i64, i64, i64, i64, i32, %class.InvocationCounter, %class.InvocationCounter, i32, i32, i32, i32, i32, i16, i16, i32, ptr, i32, i32, i32, i32, [1 x i64] }
%class.Mutex = type { ptr, %class.PlatformMonitor, ptr }
%class.PlatformMonitor = type { %class.PlatformMutex, %union.pthread_cond_t }
%class.PlatformMutex = type { %union.pthread_mutex_t }
%union.pthread_mutex_t = type { %struct.__pthread_mutex_s }
%struct.__pthread_mutex_s = type { i32, i32, i32, i32, i32, i16, i16, %struct.__pthread_internal_list }
%struct.__pthread_internal_list = type { ptr, ptr }
%union.pthread_cond_t = type { %struct.__pthread_cond_s }
%struct.__pthread_cond_s = type { %union.__atomic_wide_counter, %union.__atomic_wide_counter, [2 x i32], [2 x i32], i32, i32, [2 x i32] }
%union.__atomic_wide_counter = type { i64 }
%"class.MethodData::CompilerCounters" = type { i32, i32, i32, %union.anon.5 }
%union.anon.5 = type { i64, [56 x i8] }
%class.InvocationCounter = type { i32 }

@g_assert_poison = external global ptr, align 8
@.str.35 = private unnamed_addr constant [49 x i8] c"src/hotspot/share/compiler/compilationPolicy.cpp\00", align 1
@.str.36 = private unnamed_addr constant [33 x i8] c"guarantee(mdo != nullptr) failed\00", align 1
@.str.37 = private unnamed_addr constant [26 x i8] c"MDO should not be nullptr\00", align 1

; Function Attrs: mustprogress nounwind uwtable
define linkonce_odr hidden noundef i32 @_ZNK17InvocationCounter5countEv(ptr noundef nonnull align 4 dereferenceable(4) %0) #1 comdat align 2 {
  %2 = alloca ptr, align 8
  store ptr %0, ptr %2, align 8
  %3 = load ptr, ptr %2, align 8
  %4 = getelementptr inbounds %class.InvocationCounter, ptr %3, i32 0, i32 0
  %5 = load i32, ptr %4, align 4
  %6 = lshr i32 %5, 1
  ret i32 %6
}

; Function Attrs: mustprogress nounwind uwtable
define linkonce_odr hidden noundef zeroext i1 @_ZNK17InvocationCounter5carryEv(ptr noundef nonnull align 4 dereferenceable(4) %0) #1 comdat align 2 {
  %2 = alloca ptr, align 8
  store ptr %0, ptr %2, align 8
  %3 = load ptr, ptr %2, align 8
  %4 = getelementptr inbounds %class.InvocationCounter, ptr %3, i32 0, i32 0
  %5 = load i32, ptr %4, align 4
  %6 = and i32 %5, 1
  %7 = icmp ne i32 %6, 0
  ret i1 %7
}

; Function Attrs: mustprogress nounwind uwtable
define linkonce_odr hidden noundef ptr @_ZN10MethodData18invocation_counterEv(ptr noundef nonnull align 8 dereferenceable(312) %0) #1 comdat align 2 {
  %2 = alloca ptr, align 8
  store ptr %0, ptr %2, align 8
  %3 = load ptr, ptr %2, align 8
  %4 = getelementptr inbounds %class.MethodData, ptr %3, i32 0, i32 11
  ret ptr %4
}

; Function Attrs: mustprogress nounwind uwtable
define linkonce_odr hidden noundef ptr @_ZNK12methodHandle12non_null_objEv(ptr noundef nonnull align 8 dereferenceable(16) %0) #1 comdat align 2 {
  %2 = alloca ptr, align 8
  store ptr %0, ptr %2, align 8
  %3 = load ptr, ptr %2, align 8
  %4 = getelementptr inbounds %class.methodHandle, ptr %3, i32 0, i32 0
  %5 = load ptr, ptr %4, align 8
  ret ptr %5
}

; Function Attrs: mustprogress nounwind uwtable
define linkonce_odr hidden noundef signext i8 @_Z4MAX2I9CompLevelET_S1_S1_(i8 noundef signext %0, i8 noundef signext %1) #1 comdat {
  %3 = alloca i8, align 1
  %4 = alloca i8, align 1
  store i8 %0, ptr %3, align 1
  store i8 %1, ptr %4, align 1
  %5 = load i8, ptr %3, align 1
  %6 = sext i8 %5 to i32
  %7 = load i8, ptr %4, align 1
  %8 = sext i8 %7 to i32
  %9 = icmp sgt i32 %6, %8
  br i1 %9, label %10, label %12

10:                                               ; preds = %2
  %11 = load i8, ptr %3, align 1
  br label %14

12:                                               ; preds = %2
  %13 = load i8, ptr %4, align 1
  br label %14

14:                                               ; preds = %12, %10
  %15 = phi i8 [ %11, %10 ], [ %13, %12 ]
  ret i8 %15
}

; Function Attrs: mustprogress nounwind uwtable
define linkonce_odr hidden noundef i32 @_ZN10MethodData16invocation_countEv(ptr noundef nonnull align 8 dereferenceable(312) %0) #1 comdat align 2 {
  %2 = alloca i32, align 4
  %3 = alloca ptr, align 8
  store ptr %0, ptr %3, align 8
  %4 = load ptr, ptr %3, align 8
  %5 = call noundef ptr @_ZN10MethodData18invocation_counterEv(ptr noundef nonnull align 8 dereferenceable(312) %4)
  %6 = call noundef zeroext i1 @_ZNK17InvocationCounter5carryEv(ptr noundef nonnull align 4 dereferenceable(4) %5)
  br i1 %6, label %7, label %8

7:                                                ; preds = %1
  store i32 1073741824, ptr %2, align 4
  br label %11

8:                                                ; preds = %1
  %9 = call noundef ptr @_ZN10MethodData18invocation_counterEv(ptr noundef nonnull align 8 dereferenceable(312) %4)
  %10 = call noundef i32 @_ZNK17InvocationCounter5countEv(ptr noundef nonnull align 4 dereferenceable(4) %9)
  store i32 %10, ptr %2, align 4
  br label %11

11:                                               ; preds = %8, %7
  %12 = load i32, ptr %2, align 4
  ret i32 %12
}

; Function Attrs: mustprogress nounwind uwtable
define linkonce_odr hidden noundef ptr @_ZNK6Method11method_dataEv(ptr noundef nonnull align 8 dereferenceable(88) %0) #1 comdat align 2 {
  %2 = alloca ptr, align 8
  store ptr %0, ptr %2, align 8
  %3 = load ptr, ptr %2, align 8
  %4 = getelementptr inbounds %class.Method, ptr %3, i32 0, i32 2
  %5 = load ptr, ptr %4, align 8
  ret ptr %5
}

; Function Attrs: mustprogress nounwind uwtable
define linkonce_odr hidden noundef signext i8 @_Z4MIN2I9CompLevelET_S1_S1_(i8 noundef signext %0, i8 noundef signext %1) #1 comdat {
  %3 = alloca i8, align 1
  %4 = alloca i8, align 1
  store i8 %0, ptr %3, align 1
  store i8 %1, ptr %4, align 1
  %5 = load i8, ptr %3, align 1
  %6 = sext i8 %5 to i32
  %7 = load i8, ptr %4, align 1
  %8 = sext i8 %7 to i32
  %9 = icmp slt i32 %6, %8
  br i1 %9, label %10, label %12

10:                                               ; preds = %2
  %11 = load i8, ptr %3, align 1
  br label %14

12:                                               ; preds = %2
  %13 = load i8, ptr %4, align 1
  br label %14

14:                                               ; preds = %12, %10
  %15 = phi i8 [ %11, %10 ], [ %13, %12 ]
  ret i8 %15
}

; Function Attrs: mustprogress nounwind uwtable
define linkonce_odr hidden noundef ptr @_ZNK12methodHandleptEv(ptr noundef nonnull align 8 dereferenceable(16) %0) #1 comdat align 2 {
  %2 = alloca ptr, align 8
  store ptr %0, ptr %2, align 8
  %3 = load ptr, ptr %2, align 8
  %4 = call noundef ptr @_ZNK12methodHandle12non_null_objEv(ptr noundef nonnull align 8 dereferenceable(16) %3)
  ret ptr %4
}

; Function Attrs: mustprogress nounwind uwtable
define hidden noundef signext i8 @_ZN17CompilationPolicy10call_eventERK12methodHandle9CompLevelP6Thread(ptr noundef nonnull align 8 dereferenceable(16) %0, i8 noundef signext %1, ptr noundef %2) #1 align 2 {
  %4 = alloca ptr, align 8
  %5 = alloca i8, align 1
  %6 = alloca ptr, align 8
  %7 = alloca i8, align 1
  %8 = alloca i8, align 1
  %9 = alloca ptr, align 8
  store ptr %0, ptr %4, align 8
  store i8 %1, ptr %5, align 1
  store ptr %2, ptr %6, align 8
  %10 = load ptr, ptr %4, align 8
  %11 = call noundef ptr @_ZNK12methodHandleptEv(ptr noundef nonnull align 8 dereferenceable(16) %10)
  %12 = call noundef i32 @_ZNK6Method22highest_osr_comp_levelEv(ptr noundef nonnull align 8 dereferenceable(88) %11)
  %13 = trunc i32 %12 to i8
  %14 = load ptr, ptr %4, align 8
  %15 = load i8, ptr %5, align 1
  %16 = call noundef signext i8 @_ZN17CompilationPolicy6commonI13LoopPredicateEE9CompLevelRK12methodHandleS2_b(ptr noundef nonnull align 8 dereferenceable(16) %14, i8 noundef signext %15, i1 noundef zeroext true)
  %17 = call noundef signext i8 @_Z4MIN2I9CompLevelET_S1_S1_(i8 noundef signext %13, i8 noundef signext %16)
  store i8 %17, ptr %7, align 1
  %18 = load ptr, ptr %4, align 8
  %19 = load i8, ptr %5, align 1
  %20 = load ptr, ptr %4, align 8
  %21 = call noundef zeroext i1 @_ZN17CompilationPolicy6is_oldERK12methodHandle(ptr noundef nonnull align 8 dereferenceable(16) %20)
  %22 = call noundef signext i8 @_ZN17CompilationPolicy6commonI13CallPredicateEE9CompLevelRK12methodHandleS2_b(ptr noundef nonnull align 8 dereferenceable(16) %18, i8 noundef signext %19, i1 noundef zeroext %21)
  store i8 %22, ptr %8, align 1
  %23 = load i8, ptr %7, align 1
  %24 = sext i8 %23 to i32
  %25 = icmp eq i32 %24, 4
  br i1 %25, label %26, label %46

26:                                               ; preds = %3
  %27 = load i8, ptr %5, align 1
  %28 = sext i8 %27 to i32
  %29 = icmp eq i32 %28, 3
  br i1 %29, label %30, label %46

30:                                               ; preds = %26
  %31 = load ptr, ptr %4, align 8
  %32 = call noundef ptr @_ZNK12methodHandleptEv(ptr noundef nonnull align 8 dereferenceable(16) %31)
  %33 = call noundef ptr @_ZNK6Method11method_dataEv(ptr noundef nonnull align 8 dereferenceable(88) %32)
  store ptr %33, ptr %9, align 8
  br label %34

34:                                               ; preds = %30
  %35 = load ptr, ptr %9, align 8
  %36 = icmp ne ptr %35, null
  br i1 %36, label %39, label %37

37:                                               ; preds = %34
  %38 = load ptr, ptr @g_assert_poison, align 8
  store i8 88, ptr %38, align 1
  call void (ptr, i32, ptr, ptr, ...) @_Z15report_vm_errorPKciS0_S0_z(ptr noundef @.str.35, i32 noundef 1114, ptr noundef @.str.36, ptr noundef @.str.37) #8
  unreachable

39:                                               ; preds = %34
  br label %40

40:                                               ; preds = %39
  %41 = load ptr, ptr %9, align 8
  %42 = call noundef i32 @_ZN10MethodData16invocation_countEv(ptr noundef nonnull align 8 dereferenceable(312) %41)
  %43 = icmp sge i32 %42, 1
  br i1 %43, label %44, label %45

44:                                               ; preds = %40
  store i8 4, ptr %8, align 1
  br label %45

45:                                               ; preds = %44, %40
  br label %50

46:                                               ; preds = %26, %3
  %47 = load i8, ptr %7, align 1
  %48 = load i8, ptr %8, align 1
  %49 = call noundef signext i8 @_Z4MAX2I9CompLevelET_S1_S1_(i8 noundef signext %47, i8 noundef signext %48)
  store i8 %49, ptr %8, align 1
  br label %50

50:                                               ; preds = %46, %45
  %51 = load i8, ptr %8, align 1
  ret i8 %51
}