; Function Attrs: mustprogress nounwind uwtable
define hidden noundef signext i8 @_ZN17CompilationPolicy10call_eventERK12methodHandle9CompLevelP6Thread(ptr noundef nonnull align 8 dereferenceable(16) %0, i8 noundef signext %1, ptr nocapture noundef readnone %2) local_unnamed_addr #0 align 2 {
  %4 = load ptr, ptr %0, align 8
  %5 = tail call noundef i32 @_ZNK6Method22highest_osr_comp_levelEv(ptr noundef nonnull align 8 dereferenceable(88) %4) #12
  %6 = trunc i32 %5 to i8
  %7 = tail call noundef signext i8 @_ZN17CompilationPolicy6commonI13LoopPredicateEE9CompLevelRK12methodHandleS2_b(ptr noundef nonnull align 8 dereferenceable(16) %0, i8 noundef signext %1, i1 noundef zeroext true)
  %8 = tail call noundef i8 @llvm.smin.i8(i8 %6, i8 %7)
  %9 = tail call noundef zeroext i1 @_ZN17CompilationPolicy6is_oldERK12methodHandle(ptr noundef nonnull align 8 dereferenceable(16) %0)
  %10 = tail call noundef signext i8 @_ZN17CompilationPolicy6commonI13CallPredicateEE9CompLevelRK12methodHandleS2_b(ptr noundef nonnull align 8 dereferenceable(16) %0, i8 noundef signext %1, i1 noundef zeroext %9)
  %11 = icmp eq i8 %8, 4
  %12 = icmp eq i8 %1, 3
  %or.cond = and i1 %12, %11
  br i1 %or.cond, label %13, label %22

13:                                               ; preds = %3
  %14 = load ptr, ptr %0, align 8
  %15 = getelementptr inbounds i8, ptr %14, i64 16
  %16 = load ptr, ptr %15, align 8
  %.not = icmp eq ptr %16, null
  br i1 %.not, label %17, label %19

17:                                               ; preds = %13
  %18 = load ptr, ptr @g_assert_poison, align 8
  store i8 88, ptr %18, align 1
  tail call void (ptr, i32, ptr, ptr, ...) @_Z15report_vm_errorPKciS0_S0_z(ptr noundef nonnull @.str.35, i32 noundef 1114, ptr noundef nonnull @.str.36, ptr noundef nonnull @.str.37) #13
  unreachable

19:                                               ; preds = %13
  %20 = getelementptr inbounds i8, ptr %16, i64 244
  %21 = load i32, ptr %20, align 4
  %.not16 = icmp eq i32 %21, 0
  %spec.select = select i1 %.not16, i8 %10, i8 4
  br label %24

22:                                               ; preds = %3
  %23 = tail call noundef i8 @llvm.smax.i8(i8 %8, i8 %10)
  br label %24

24:                                               ; preds = %19, %22
  %.0 = phi i8 [ %23, %22 ], [ %spec.select, %19 ]
  ret i8 %.0
}